target datalayout = "e-m:e-p270:32:32-p271:32:32-p272:64:64-i64:64-i128:128-f80:128-n8:16:32:64-S128"
target triple = "x86_64-pc-linux-gnu"

%"class.std::__cxx11::basic_string" = type { %"struct.std::__cxx11::basic_string<char>::_Alloc_hider", i64, %union.anon }
%"struct.std::__cxx11::basic_string<char>::_Alloc_hider" = type { ptr }
%union.anon = type { i64, [8 x i8] }
%"class.std::allocator" = type { i8 }

@.str.1 = private unnamed_addr constant [117 x i8] c"generated/home/dtcxzyw/WorkSpace/Projects/compilers/llvm-opt-benchmark/bench/opencv/opencv/modules/core/src/copy.cpp\00", align 1
@.str.24 = private unnamed_addr constant [8 x i8] c"len > 0\00", align 1
@__func__._ZN2cv17borderInterpolateEiii = private unnamed_addr constant [18 x i8] c"borderInterpolate\00", align 1
@.str.25 = private unnamed_addr constant [32 x i8] c"Unknown/unsupported border type\00", align 1

; Function Attrs: mustprogress uwtable
define noundef i32 @_ZN2cv17borderInterpolateEiii(i32 noundef %0, i32 noundef %1, i32 noundef %2) #0 personality ptr @__gxx_personality_v0 {
  %4 = alloca i32, align 4
  %5 = alloca i32, align 4
  %6 = alloca i32, align 4
  %7 = alloca i32, align 4
  %8 = alloca i32, align 4
  %9 = alloca %"class.std::__cxx11::basic_string", align 8
  %10 = alloca %"class.std::allocator", align 1
  %11 = alloca ptr, align 8
  %12 = alloca i32, align 4
  %13 = alloca %"class.std::__cxx11::basic_string", align 8
  %14 = alloca %"class.std::allocator", align 1
  store i32 %0, ptr %5, align 4
  store i32 %1, ptr %6, align 4
  store i32 %2, ptr %7, align 4
  %15 = load i32, ptr %5, align 4
  %16 = load i32, ptr %6, align 4
  %17 = icmp ult i32 %15, %16
  br i1 %17, label %18, label %19

18:                                               ; preds = %3
  br label %133

19:                                               ; preds = %3
  %20 = load i32, ptr %7, align 4
  %21 = icmp eq i32 %20, 1
  br i1 %21, label %22, label %31

22:                                               ; preds = %19
  %23 = load i32, ptr %5, align 4
  %24 = icmp slt i32 %23, 0
  br i1 %24, label %25, label %26

25:                                               ; preds = %22
  br label %29

26:                                               ; preds = %22
  %27 = load i32, ptr %6, align 4
  %28 = sub nsw i32 %27, 1
  br label %29

29:                                               ; preds = %26, %25
  %30 = phi i32 [ 0, %25 ], [ %28, %26 ]
  store i32 %30, ptr %5, align 4
  br label %132

31:                                               ; preds = %19
  %32 = load i32, ptr %7, align 4
  %33 = icmp eq i32 %32, 2
  br i1 %33, label %37, label %34

34:                                               ; preds = %31
  %35 = load i32, ptr %7, align 4
  %36 = icmp eq i32 %35, 4
  br i1 %36, label %37, label %69

37:                                               ; preds = %34, %31
  %38 = load i32, ptr %7, align 4
  %39 = icmp eq i32 %38, 4
  %40 = zext i1 %39 to i32
  store i32 %40, ptr %8, align 4
  %41 = load i32, ptr %6, align 4
  %42 = icmp eq i32 %41, 1
  br i1 %42, label %43, label %44

43:                                               ; preds = %37
  store i32 0, ptr %4, align 4
  br label %135

44:                                               ; preds = %37
  br label %45

45:                                               ; preds = %64, %44
  %46 = load i32, ptr %5, align 4
  %47 = icmp slt i32 %46, 0
  br i1 %47, label %48, label %54

48:                                               ; preds = %45
  %49 = load i32, ptr %5, align 4
  %50 = sub nsw i32 0, %49
  %51 = sub nsw i32 %50, 1
  %52 = load i32, ptr %8, align 4
  %53 = add nsw i32 %51, %52
  store i32 %53, ptr %5, align 4
  br label %63

54:                                               ; preds = %45
  %55 = load i32, ptr %6, align 4
  %56 = sub nsw i32 %55, 1
  %57 = load i32, ptr %5, align 4
  %58 = load i32, ptr %6, align 4
  %59 = sub nsw i32 %57, %58
  %60 = sub nsw i32 %56, %59
  %61 = load i32, ptr %8, align 4
  %62 = sub nsw i32 %60, %61
  store i32 %62, ptr %5, align 4
  br label %63

63:                                               ; preds = %54, %48
  br label %64

64:                                               ; preds = %63
  %65 = load i32, ptr %5, align 4
  %66 = load i32, ptr %6, align 4
  %67 = icmp uge i32 %65, %66
  br i1 %67, label %45, label %68, !llvm.loop !39

68:                                               ; preds = %64
  br label %131

69:                                               ; preds = %34
  %70 = load i32, ptr %7, align 4
  %71 = icmp eq i32 %70, 3
  br i1 %71, label %72, label %113

72:                                               ; preds = %69
  br label %73

73:                                               ; preds = %72
  %74 = load i32, ptr %6, align 4
  %75 = icmp sgt i32 %74, 0
  br i1 %75, label %76, label %77

76:                                               ; preds = %73
  br label %89

77:                                               ; preds = %73
  call void @_ZNSaIcEC1Ev(ptr noundef nonnull align 1 dereferenceable(1) %10) #13
  invoke void @_ZNSt7__cxx1112basic_stringIcSt11char_traitsIcESaIcEEC1EPKcRKS3_(ptr noundef nonnull align 8 dereferenceable(32) %9, ptr noundef @.str.24, ptr noundef nonnull align 1 dereferenceable(1) %10)
          to label %78 unwind label %80

78:                                               ; preds = %77
  invoke void @_ZN2cv5errorEiRKNSt7__cxx1112basic_stringIcSt11char_traitsIcESaIcEEEPKcS9_i(i32 noundef -215, ptr noundef nonnull align 8 dereferenceable(32) %9, ptr noundef @__func__._ZN2cv17borderInterpolateEiii, ptr noundef @.str.1, i32 noundef 782) #14
          to label %79 unwind label %84

79:                                               ; preds = %78
  unreachable

80:                                               ; preds = %77
  %81 = landingpad { ptr, i32 }
          cleanup
  %82 = extractvalue { ptr, i32 } %81, 0
  store ptr %82, ptr %11, align 8
  %83 = extractvalue { ptr, i32 } %81, 1
  store i32 %83, ptr %12, align 4
  br label %88

84:                                               ; preds = %78
  %85 = landingpad { ptr, i32 }
          cleanup
  %86 = extractvalue { ptr, i32 } %85, 0
  store ptr %86, ptr %11, align 8
  %87 = extractvalue { ptr, i32 } %85, 1
  store i32 %87, ptr %12, align 4
  call void @_ZNSt7__cxx1112basic_stringIcSt11char_traitsIcESaIcEED1Ev(ptr noundef nonnull align 8 dereferenceable(32) %9) #13
  br label %88

88:                                               ; preds = %84, %80
  call void @_ZNSaIcED1Ev(ptr noundef nonnull align 1 dereferenceable(1) %10) #13
  br label %137

89:                                               ; preds = %76
  br label %90

90:                                               ; preds = %89
  %91 = load i32, ptr %5, align 4
  %92 = icmp slt i32 %91, 0
  br i1 %92, label %93, label %104

93:                                               ; preds = %90
  %94 = load i32, ptr %5, align 4
  %95 = load i32, ptr %6, align 4
  %96 = sub nsw i32 %94, %95
  %97 = add nsw i32 %96, 1
  %98 = load i32, ptr %6, align 4
  %99 = sdiv i32 %97, %98
  %100 = load i32, ptr %6, align 4
  %101 = mul nsw i32 %99, %100
  %102 = load i32, ptr %5, align 4
  %103 = sub nsw i32 %102, %101
  store i32 %103, ptr %5, align 4
  br label %104

104:                                              ; preds = %93, %90
  %105 = load i32, ptr %5, align 4
  %106 = load i32, ptr %6, align 4
  %107 = icmp sge i32 %105, %106
  br i1 %107, label %108, label %112

108:                                              ; preds = %104
  %109 = load i32, ptr %6, align 4
  %110 = load i32, ptr %5, align 4
  %111 = srem i32 %110, %109
  store i32 %111, ptr %5, align 4
  br label %112

112:                                              ; preds = %108, %104
  br label %130

113:                                              ; preds = %69
  %114 = load i32, ptr %7, align 4
  %115 = icmp eq i32 %114, 0
  br i1 %115, label %116, label %117

116:                                              ; preds = %113
  store i32 -1, ptr %5, align 4
  br label %129

117:                                              ; preds = %113
  call void @_ZNSaIcEC1Ev(ptr noundef nonnull align 1 dereferenceable(1) %14) #13
  invoke void @_ZNSt7__cxx1112basic_stringIcSt11char_traitsIcESaIcEEC1EPKcRKS3_(ptr noundef nonnull align 8 dereferenceable(32) %13, ptr noundef @.str.25, ptr noundef nonnull align 1 dereferenceable(1) %14)
          to label %118 unwind label %120

118:                                              ; preds = %117
  invoke void @_ZN2cv5errorEiRKNSt7__cxx1112basic_stringIcSt11char_traitsIcESaIcEEEPKcS9_i(i32 noundef -5, ptr noundef nonnull align 8 dereferenceable(32) %13, ptr noundef @__func__._ZN2cv17borderInterpolateEiii, ptr noundef @.str.1, i32 noundef 791) #14
          to label %119 unwind label %124

119:                                              ; preds = %118
  unreachable

120:                                              ; preds = %117
  %121 = landingpad { ptr, i32 }
          cleanup
  %122 = extractvalue { ptr, i32 } %121, 0
  store ptr %122, ptr %11, align 8
  %123 = extractvalue { ptr, i32 } %121, 1
  store i32 %123, ptr %12, align 4
  br label %128

124:                                              ; preds = %118
  %125 = landingpad { ptr, i32 }
          cleanup
  %126 = extractvalue { ptr, i32 } %125, 0
  store ptr %126, ptr %11, align 8
  %127 = extractvalue { ptr, i32 } %125, 1
  store i32 %127, ptr %12, align 4
  call void @_ZNSt7__cxx1112basic_stringIcSt11char_traitsIcESaIcEED1Ev(ptr noundef nonnull align 8 dereferenceable(32) %13) #13
  br label %128

128:                                              ; preds = %124, %120
  call void @_ZNSaIcED1Ev(ptr noundef nonnull align 1 dereferenceable(1) %14) #13
  br label %137

129:                                              ; preds = %116
  br label %130

130:                                              ; preds = %129, %112
  br label %131

131:                                              ; preds = %130, %68
  br label %132

132:                                              ; preds = %131, %29
  br label %133

133:                                              ; preds = %132, %18
  %134 = load i32, ptr %5, align 4
  store i32 %134, ptr %4, align 4
  br label %135

135:                                              ; preds = %133, %43
  %136 = load i32, ptr %4, align 4
  ret i32 %136

137:                                              ; preds = %128, %88
  %138 = load ptr, ptr %11, align 8
  %139 = load i32, ptr %12, align 4
  %140 = insertvalue { ptr, i32 } poison, ptr %138, 0
  %141 = insertvalue { ptr, i32 } %140, i32 %139, 1
  resume { ptr, i32 } %141
}