; Function Attrs: mustprogress uwtable
define noundef i32 @_ZN2cv17borderInterpolateEiii(i32 noundef %0, i32 noundef %1, i32 noundef %2) local_unnamed_addr #5 personality ptr @__gxx_personality_v0 {
  %4 = alloca %"class.std::__cxx11::basic_string", align 8
  %5 = alloca %"class.std::allocator", align 1
  %6 = alloca %"class.std::__cxx11::basic_string", align 8
  %7 = alloca %"class.std::allocator", align 1
  %8 = icmp ult i32 %0, %1
  br i1 %8, label %.loopexit, label %9

9:                                                ; preds = %3
  switch i32 %2, label %47 [
    i32 1, label %10
    i32 4, label %14
    i32 2, label %14
    i32 3, label %28
    i32 0, label %.loopexit
  ]

10:                                               ; preds = %9
  %11 = icmp slt i32 %0, 0
  %12 = add nsw i32 %1, -1
  %13 = select i1 %11, i32 0, i32 %12
  br label %.loopexit

14:                                               ; preds = %9, %9
  %15 = icmp eq i32 %2, 4
  %16 = zext i1 %15 to i32
  %17 = icmp eq i32 %1, 1
  br i1 %17, label %.loopexit, label %.preheader

.preheader:                                       ; preds = %14
  %reass.add = shl i32 %1, 1
  br label %18

18:                                               ; preds = %.preheader, %27
  %.039 = phi i32 [ %.140, %27 ], [ %0, %.preheader ]
  %19 = icmp slt i32 %.039, 0
  br i1 %19, label %20, label %23

20:                                               ; preds = %18
  %21 = xor i32 %.039, -1
  %22 = add nuw nsw i32 %21, %16
  br label %27

23:                                               ; preds = %18
  %24 = add nuw i32 %.039, %16
  %25 = xor i32 %24, -1
  %26 = add i32 %reass.add, %25
  br label %27

27:                                               ; preds = %20, %23
  %.140 = phi i32 [ %22, %20 ], [ %26, %23 ]
  %.not51 = icmp ult i32 %.140, %1
  br i1 %.not51, label %.loopexit, label %18, !llvm.loop !86

28:                                               ; preds = %9
  %29 = icmp sgt i32 %1, 0
  br i1 %29, label %37, label %30

30:                                               ; preds = %28
  call void @_ZNSaIcEC1Ev(ptr noundef nonnull align 1 dereferenceable(1) %5) #17
  invoke void @_ZNSt7__cxx1112basic_stringIcSt11char_traitsIcESaIcEEC1EPKcRKS3_(ptr noundef nonnull align 8 dereferenceable(32) %4, ptr noundef nonnull @.str.24, ptr noundef nonnull align 1 dereferenceable(1) %5)
          to label %31 unwind label %33

31:                                               ; preds = %30
  invoke void @_ZN2cv5errorEiRKNSt7__cxx1112basic_stringIcSt11char_traitsIcESaIcEEEPKcS9_i(i32 noundef -215, ptr noundef nonnull align 8 dereferenceable(32) %4, ptr noundef nonnull @__func__._ZN2cv17borderInterpolateEiii, ptr noundef nonnull @.str.1, i32 noundef 782) #18
          to label %32 unwind label %35

32:                                               ; preds = %31
  unreachable

33:                                               ; preds = %30
  %34 = landingpad { ptr, i32 }
          cleanup
  br label %54

35:                                               ; preds = %31
  %36 = landingpad { ptr, i32 }
          cleanup
  call void @_ZNSt7__cxx1112basic_stringIcSt11char_traitsIcESaIcEED1Ev(ptr noundef nonnull align 8 dereferenceable(32) %4) #17
  br label %54

37:                                               ; preds = %28
  %38 = icmp slt i32 %0, 0
  br i1 %38, label %39, label %44

39:                                               ; preds = %37
  %40 = xor i32 %0, -1
  %.neg53 = add nuw i32 %40, %1
  %41 = urem i32 %.neg53, %1
  %42 = xor i32 %41, -1
  %43 = add nsw i32 %42, %1
  br label %44

44:                                               ; preds = %39, %37
  %.241 = phi i32 [ %43, %39 ], [ %0, %37 ]
  %.not = icmp slt i32 %.241, %1
  br i1 %.not, label %.loopexit, label %45

45:                                               ; preds = %44
  %46 = urem i32 %.241, %1
  br label %.loopexit

47:                                               ; preds = %9
  call void @_ZNSaIcEC1Ev(ptr noundef nonnull align 1 dereferenceable(1) %7) #17
  invoke void @_ZNSt7__cxx1112basic_stringIcSt11char_traitsIcESaIcEEC1EPKcRKS3_(ptr noundef nonnull align 8 dereferenceable(32) %6, ptr noundef nonnull @.str.25, ptr noundef nonnull align 1 dereferenceable(1) %7)
          to label %48 unwind label %50

48:                                               ; preds = %47
  invoke void @_ZN2cv5errorEiRKNSt7__cxx1112basic_stringIcSt11char_traitsIcESaIcEEEPKcS9_i(i32 noundef -5, ptr noundef nonnull align 8 dereferenceable(32) %6, ptr noundef nonnull @__func__._ZN2cv17borderInterpolateEiii, ptr noundef nonnull @.str.1, i32 noundef 791) #18
          to label %49 unwind label %52

49:                                               ; preds = %48
  unreachable

50:                                               ; preds = %47
  %51 = landingpad { ptr, i32 }
          cleanup
  br label %54

52:                                               ; preds = %48
  %53 = landingpad { ptr, i32 }
          cleanup
  call void @_ZNSt7__cxx1112basic_stringIcSt11char_traitsIcESaIcEED1Ev(ptr noundef nonnull align 8 dereferenceable(32) %6) #17
  br label %54

.loopexit:                                        ; preds = %27, %9, %3, %44, %45, %10, %14
  %.038 = phi i32 [ 0, %14 ], [ %0, %3 ], [ %13, %10 ], [ %46, %45 ], [ %.241, %44 ], [ -1, %9 ], [ %.140, %27 ]
  ret i32 %.038

54:                                               ; preds = %50, %52, %33, %35
  %.sink = phi ptr [ %5, %35 ], [ %5, %33 ], [ %7, %52 ], [ %7, %50 ]
  %.pn47.pn = phi { ptr, i32 } [ %36, %35 ], [ %34, %33 ], [ %53, %52 ], [ %51, %50 ]
  call void @_ZNSaIcED1Ev(ptr noundef nonnull align 1 dereferenceable(1) %.sink) #17
  resume { ptr, i32 } %.pn47.pn
}